; Function Attrs: mustprogress nofree norecurse nosync nounwind willreturn memory(read, inaccessiblemem: none) uwtable
define noundef zeroext i1 @_ZN17ColumnEditorFrame13syntaxIsValidEv(ptr nocapture noundef nonnull readonly align 8 dereferenceable(120) %0) local_unnamed_addr #7 align 2 {
  %2 = getelementptr inbounds i8, ptr %0, i64 56
  %3 = load ptr, ptr %2, align 8
  %4 = getelementptr inbounds i8, ptr %3, i64 64
  %5 = load ptr, ptr %4, align 8
  %6 = getelementptr inbounds i8, ptr %5, i64 56
  %7 = load i32, ptr %6, align 8
  %8 = icmp eq i32 %7, 4
  br i1 %8, label %9, label %15

9:                                                ; preds = %1
  %10 = getelementptr inbounds i8, ptr %3, i64 88
  %11 = load ptr, ptr %10, align 8
  %12 = getelementptr inbounds i8, ptr %11, i64 56
  %13 = load i32, ptr %12, align 8
  %14 = icmp ne i32 %13, 2
  br label %15

15:                                               ; preds = %9, %1
  %16 = phi i1 [ false, %1 ], [ %14, %9 ]
  ret i1 %16
}